target datalayout = "e-m:e-p270:32:32-p271:32:32-p272:64:64-i64:64-i128:128-f80:128-n8:16:32:64-S128"
target triple = "x86_64-pc-linux-gnu"

%struct.OSQPSolver = type { ptr, ptr, ptr, ptr }
%struct.OSQPWorkspace_ = type { ptr, ptr, ptr, ptr, ptr, ptr, ptr, ptr, ptr, ptr, ptr, ptr, ptr, ptr, ptr, ptr, ptr, ptr, ptr, ptr, ptr, ptr, ptr, ptr, ptr, ptr, double, double, double, ptr, i64, i64, i64, i64, ptr }
%struct.OSQPScaling = type { double, ptr, ptr, double, ptr, ptr }

; Function Attrs: nounwind uwtable
define i64 @unscale_lu(ptr noundef %0, ptr noundef %1, ptr noundef %2) #0 {
  %4 = alloca ptr, align 8
  %5 = alloca ptr, align 8
  %6 = alloca ptr, align 8
  store ptr %0, ptr %4, align 8
  store ptr %1, ptr %5, align 8
  store ptr %2, ptr %6, align 8
  %7 = load ptr, ptr %5, align 8
  %8 = load ptr, ptr %5, align 8
  %9 = load ptr, ptr %4, align 8
  %10 = getelementptr inbounds %struct.OSQPSolver, ptr %9, i32 0, i32 3
  %11 = load ptr, ptr %10, align 8
  %12 = getelementptr inbounds %struct.OSQPWorkspace_, ptr %11, i32 0, i32 25
  %13 = load ptr, ptr %12, align 8
  %14 = getelementptr inbounds %struct.OSQPScaling, ptr %13, i32 0, i32 5
  %15 = load ptr, ptr %14, align 8
  call void @OSQPVectorf_ew_prod(ptr noundef %7, ptr noundef %8, ptr noundef %15)
  %16 = load ptr, ptr %6, align 8
  %17 = load ptr, ptr %6, align 8
  %18 = load ptr, ptr %4, align 8
  %19 = getelementptr inbounds %struct.OSQPSolver, ptr %18, i32 0, i32 3
  %20 = load ptr, ptr %19, align 8
  %21 = getelementptr inbounds %struct.OSQPWorkspace_, ptr %20, i32 0, i32 25
  %22 = load ptr, ptr %21, align 8
  %23 = getelementptr inbounds %struct.OSQPScaling, ptr %22, i32 0, i32 5
  %24 = load ptr, ptr %23, align 8
  call void @OSQPVectorf_ew_prod(ptr noundef %16, ptr noundef %17, ptr noundef %24)
  ret i64 0
}