; Function Attrs: nounwind uwtable
define noundef i64 @unscale_lu(ptr nocapture noundef readonly %0, ptr noundef %1, ptr noundef %2) local_unnamed_addr #0 {
  %4 = getelementptr inbounds i8, ptr %0, i64 24
  %5 = load ptr, ptr %4, align 8
  %6 = getelementptr inbounds i8, ptr %5, i64 200
  %7 = load ptr, ptr %6, align 8
  %8 = getelementptr inbounds i8, ptr %7, i64 40
  %9 = load ptr, ptr %8, align 8
  tail call void @OSQPVectorf_ew_prod(ptr noundef %1, ptr noundef %1, ptr noundef %9) #6
  %10 = load ptr, ptr %4, align 8
  %11 = getelementptr inbounds i8, ptr %10, i64 200
  %12 = load ptr, ptr %11, align 8
  %13 = getelementptr inbounds i8, ptr %12, i64 40
  %14 = load ptr, ptr %13, align 8
  tail call void @OSQPVectorf_ew_prod(ptr noundef %2, ptr noundef %2, ptr noundef %14) #6
  ret i64 0
}